target datalayout = "e-m:e-p270:32:32-p271:32:32-p272:64:64-i64:64-i128:128-f80:128-n8:16:32:64-S128"
target triple = "x86_64-unknown-linux-gnu"

%"struct.icu_75::RegularExpression" = type <{ i32, [4 x i8], ptr, ptr, ptr, i32, [4 x i8], ptr, ptr, i32, i8, [3 x i8] }>
%struct.UText = type { i32, i32, i32, i32, i64, i32, i32, i64, i32, i32, ptr, ptr, ptr, ptr, ptr, ptr, ptr, ptr, i64, i32, i32, i64, i32, i32 }

@_ZN6icu_7517RegularExpressionC1Ev = unnamed_addr alias void (ptr), ptr @_ZN6icu_7517RegularExpressionC2Ev
@_ZN6icu_7517RegularExpressionD1Ev = unnamed_addr alias void (ptr), ptr @_ZN6icu_7517RegularExpressionD2Ev

; Function Attrs: noreturn nounwind uwtable
define linkonce_odr hidden void @__clang_call_terminate(ptr noundef %0) #2 comdat {
  %2 = call ptr @__cxa_begin_catch(ptr %0) #7
  call void @_ZSt9terminatev() #8
  unreachable
}

; Function Attrs: mustprogress nounwind uwtable
define linkonce_odr noundef i32 @_ZStanSt12memory_orderSt23__memory_order_modifier(i32 noundef %__m, i32 noundef %__mod) #0 comdat {
entry:
  %__m.addr = alloca i32, align 4
  %__mod.addr = alloca i32, align 4
  store i32 %__m, ptr %__m.addr, align 4
  store i32 %__mod, ptr %__mod.addr, align 4
  %0 = load i32, ptr %__m.addr, align 4
  %1 = load i32, ptr %__mod.addr, align 4
  %and = and i32 %0, %1
  ret i32 %and
}

; Function Attrs: mustprogress nounwind uwtable
define internal noundef signext i8 @_ZL9U_SUCCESS10UErrorCode(i32 noundef %code) #0 {
entry:
  %code.addr = alloca i32, align 4
  store i32 %code, ptr %code.addr, align 4
  %0 = load i32, ptr %code.addr, align 4
  %cmp = icmp sle i32 %0, 0
  %conv = zext i1 %cmp to i8
  ret i8 %conv
}

; Function Attrs: mustprogress nounwind uwtable
define linkonce_odr noundef i32 @_ZNSt13__atomic_baseIiEaSEi(ptr noundef nonnull align 4 dereferenceable(4) %this, i32 noundef %__i) #0 comdat align 2 personality ptr @__gxx_personality_v0 {
entry:
  %this.addr.i = alloca ptr, align 8
  %__i.addr.i = alloca i32, align 4
  %__m.addr.i = alloca i32, align 4
  %__b.i = alloca i32, align 4
  %.atomictmp.i = alloca i32, align 4
  %this.addr = alloca ptr, align 8
  %__i.addr = alloca i32, align 4
  store ptr %this, ptr %this.addr, align 8
  store i32 %__i, ptr %__i.addr, align 4
  %this1 = load ptr, ptr %this.addr, align 8
  %0 = load i32, ptr %__i.addr, align 4
  store ptr %this1, ptr %this.addr.i, align 8
  store i32 %0, ptr %__i.addr.i, align 4
  store i32 5, ptr %__m.addr.i, align 4
  %this1.i = load ptr, ptr %this.addr.i, align 8
  %1 = load i32, ptr %__m.addr.i, align 4
  %call.i = invoke noundef i32 @_ZStanSt12memory_orderSt23__memory_order_modifier(i32 noundef %1, i32 noundef 65535)
          to label %invoke.cont.i unwind label %terminate.lpad.i

invoke.cont.i:                                    ; preds = %entry
  store i32 %call.i, ptr %__b.i, align 4
  %2 = load i32, ptr %__m.addr.i, align 4
  %3 = load i32, ptr %__i.addr.i, align 4
  store i32 %3, ptr %.atomictmp.i, align 4
  switch i32 %2, label %monotonic.i [
    i32 3, label %release.i
    i32 5, label %seqcst.i
  ]

monotonic.i:                                      ; preds = %invoke.cont.i
  %4 = load i32, ptr %.atomictmp.i, align 4
  store atomic i32 %4, ptr %this1.i monotonic, align 4
  br label %_ZNSt13__atomic_baseIiE5storeEiSt12memory_order.exit

release.i:                                        ; preds = %invoke.cont.i
  %5 = load i32, ptr %.atomictmp.i, align 4
  store atomic i32 %5, ptr %this1.i release, align 4
  br label %_ZNSt13__atomic_baseIiE5storeEiSt12memory_order.exit

seqcst.i:                                         ; preds = %invoke.cont.i
  %6 = load i32, ptr %.atomictmp.i, align 4
  store atomic i32 %6, ptr %this1.i seq_cst, align 4
  br label %_ZNSt13__atomic_baseIiE5storeEiSt12memory_order.exit

terminate.lpad.i:                                 ; preds = %entry
  %7 = landingpad { ptr, i32 }
          catch ptr null
  %8 = extractvalue { ptr, i32 } %7, 0
  call void @__clang_call_terminate(ptr %8) #8
  unreachable

_ZNSt13__atomic_baseIiE5storeEiSt12memory_order.exit: ; preds = %seqcst.i, %release.i, %monotonic.i
  %9 = load i32, ptr %__i.addr, align 4
  ret i32 %9
}

; Function Attrs: mustprogress nounwind uwtable
define internal noundef signext i8 @_ZL9U_FAILURE10UErrorCode(i32 noundef %code) #0 {
entry:
  %code.addr = alloca i32, align 4
  store i32 %code, ptr %code.addr, align 4
  %0 = load i32, ptr %code.addr, align 4
  %cmp = icmp sgt i32 %0, 0
  %conv = zext i1 %cmp to i8
  ret i8 %conv
}

; Function Attrs: mustprogress uwtable
define ptr @uregex_openUText_75(ptr noundef %pattern, i32 noundef %flags, ptr noundef %pe, ptr noundef %status) #4 personality ptr @__gxx_personality_v0 {
entry:
  %retval = alloca ptr, align 8
  %pattern.addr = alloca ptr, align 8
  %flags.addr = alloca i32, align 4
  %pe.addr = alloca ptr, align 8
  %status.addr = alloca ptr, align 8
  %patternNativeLength = alloca i64, align 8
  %re = alloca ptr, align 8
  %saved-rvalue = alloca ptr, align 8
  %cleanup.cond = alloca i1, align 1
  %exn.slot = alloca ptr, align 8
  %ehselector.slot = alloca i32, align 4
  %lengthStatus = alloca i32, align 4
  %pattern16Length = alloca i32, align 4
  %refC = alloca ptr, align 8
  %patBuf = alloca ptr, align 8
  %patText = alloca %struct.UText, align 8
  store ptr %pattern, ptr %pattern.addr, align 8
  store i32 %flags, ptr %flags.addr, align 4
  store ptr %pe, ptr %pe.addr, align 8
  store ptr %status, ptr %status.addr, align 8
  %0 = load ptr, ptr %status.addr, align 8
  %1 = load i32, ptr %0, align 4
  %call = call noundef signext i8 @_ZL9U_FAILURE10UErrorCode(i32 noundef %1)
  %tobool = icmp ne i8 %call, 0
  br i1 %tobool, label %if.then, label %if.end

if.then:                                          ; preds = %entry
  store ptr null, ptr %retval, align 8
  br label %return

if.end:                                           ; preds = %entry
  %2 = load ptr, ptr %pattern.addr, align 8
  %cmp = icmp eq ptr %2, null
  br i1 %cmp, label %if.then1, label %if.end2

if.then1:                                         ; preds = %if.end
  %3 = load ptr, ptr %status.addr, align 8
  store i32 1, ptr %3, align 4
  store ptr null, ptr %retval, align 8
  br label %return

if.end2:                                          ; preds = %if.end
  %4 = load ptr, ptr %pattern.addr, align 8
  %call3 = call i64 @utext_nativeLength_75(ptr noundef %4)
  store i64 %call3, ptr %patternNativeLength, align 8
  %5 = load i64, ptr %patternNativeLength, align 8
  %cmp4 = icmp eq i64 %5, 0
  br i1 %cmp4, label %if.then5, label %if.end6

if.then5:                                         ; preds = %if.end2
  %6 = load ptr, ptr %status.addr, align 8
  store i32 1, ptr %6, align 4
  store ptr null, ptr %retval, align 8
  br label %return

if.end6:                                          ; preds = %if.end2
  %call7 = call noundef ptr @_ZN6icu_757UMemorynwEm(i64 noundef 64) #7
  %new.isnull = icmp eq ptr %call7, null
  store i1 false, ptr %cleanup.cond, align 1
  br i1 %new.isnull, label %new.cont, label %new.notnull

new.notnull:                                      ; preds = %if.end6
  store ptr %call7, ptr %saved-rvalue, align 8
  store i1 true, ptr %cleanup.cond, align 1
  invoke void @_ZN6icu_7517RegularExpressionC1Ev(ptr noundef nonnull align 8 dereferenceable(61) %call7)
          to label %invoke.cont unwind label %lpad

invoke.cont:                                      ; preds = %new.notnull
  br label %new.cont

new.cont:                                         ; preds = %invoke.cont, %if.end6
  %7 = phi ptr [ %call7, %invoke.cont ], [ null, %if.end6 ]
  store ptr %7, ptr %re, align 8
  store i32 0, ptr %lengthStatus, align 4
  %8 = load ptr, ptr %pattern.addr, align 8
  %9 = load i64, ptr %patternNativeLength, align 8
  %call8 = call i32 @utext_extract_75(ptr noundef %8, i64 noundef 0, i64 noundef %9, ptr noundef null, i32 noundef 0, ptr noundef %lengthStatus)
  store i32 %call8, ptr %pattern16Length, align 4
  %call9 = call noalias ptr @uprv_malloc_75(i64 noundef 4) #9
  store ptr %call9, ptr %refC, align 8
  %10 = load i32, ptr %pattern16Length, align 4
  %add = add nsw i32 %10, 1
  %conv = sext i32 %add to i64
  %mul = mul i64 2, %conv
  %call10 = call noalias ptr @uprv_malloc_75(i64 noundef %mul) #9
  store ptr %call10, ptr %patBuf, align 8
  %11 = load ptr, ptr %re, align 8
  %cmp11 = icmp eq ptr %11, null
  br i1 %cmp11, label %if.then15, label %lor.lhs.false

lor.lhs.false:                                    ; preds = %new.cont
  %12 = load ptr, ptr %refC, align 8
  %cmp12 = icmp eq ptr %12, null
  br i1 %cmp12, label %if.then15, label %lor.lhs.false13

lor.lhs.false13:                                  ; preds = %lor.lhs.false
  %13 = load ptr, ptr %patBuf, align 8
  %cmp14 = icmp eq ptr %13, null
  br i1 %cmp14, label %if.then15, label %if.end16

if.then15:                                        ; preds = %lor.lhs.false13, %lor.lhs.false, %new.cont
  %14 = load ptr, ptr %status.addr, align 8
  store i32 7, ptr %14, align 4
  %15 = load ptr, ptr %re, align 8
  %isnull = icmp eq ptr %15, null
  br i1 %isnull, label %delete.end, label %delete.notnull

delete.notnull:                                   ; preds = %if.then15
  call void @_ZN6icu_7517RegularExpressionD1Ev(ptr noundef nonnull align 8 dereferenceable(61) %15) #7
  call void @_ZN6icu_757UMemorydlEPv(ptr noundef %15) #7
  br label %delete.end

delete.end:                                       ; preds = %delete.notnull, %if.then15
  %16 = load ptr, ptr %refC, align 8
  call void @uprv_free_75(ptr noundef %16)
  %17 = load ptr, ptr %patBuf, align 8
  call void @uprv_free_75(ptr noundef %17)
  store ptr null, ptr %retval, align 8
  br label %return

lpad:                                             ; preds = %new.notnull
  %18 = landingpad { ptr, i32 }
          cleanup
  %19 = extractvalue { ptr, i32 } %18, 0
  store ptr %19, ptr %exn.slot, align 8
  %20 = extractvalue { ptr, i32 } %18, 1
  store i32 %20, ptr %ehselector.slot, align 4
  %cleanup.is_active = load i1, ptr %cleanup.cond, align 1
  br i1 %cleanup.is_active, label %cleanup.action, label %cleanup.done

cleanup.action:                                   ; preds = %lpad
  %21 = load ptr, ptr %saved-rvalue, align 8
  call void @_ZN6icu_757UMemorydlEPv(ptr noundef %21) #7
  br label %cleanup.done

cleanup.done:                                     ; preds = %cleanup.action, %lpad
  br label %eh.resume

if.end16:                                         ; preds = %lor.lhs.false13
  %22 = load ptr, ptr %refC, align 8
  %23 = load ptr, ptr %re, align 8
  %fPatRefCount = getelementptr inbounds %"struct.icu_75::RegularExpression", ptr %23, i32 0, i32 3
  store ptr %22, ptr %fPatRefCount, align 8
  %24 = load ptr, ptr %re, align 8
  %fPatRefCount17 = getelementptr inbounds %"struct.icu_75::RegularExpression", ptr %24, i32 0, i32 3
  %25 = load ptr, ptr %fPatRefCount17, align 8
  %call18 = call noundef i32 @_ZNSt13__atomic_baseIiEaSEi(ptr noundef nonnull align 4 dereferenceable(4) %25, i32 noundef 1) #7
  %26 = load ptr, ptr %patBuf, align 8
  %27 = load ptr, ptr %re, align 8
  %fPatString = getelementptr inbounds %"struct.icu_75::RegularExpression", ptr %27, i32 0, i32 4
  store ptr %26, ptr %fPatString, align 8
  %28 = load i32, ptr %pattern16Length, align 4
  %29 = load ptr, ptr %re, align 8
  %fPatStringLen = getelementptr inbounds %"struct.icu_75::RegularExpression", ptr %29, i32 0, i32 5
  store i32 %28, ptr %fPatStringLen, align 8
  %30 = load ptr, ptr %pattern.addr, align 8
  %31 = load i64, ptr %patternNativeLength, align 8
  %32 = load ptr, ptr %patBuf, align 8
  %33 = load i32, ptr %pattern16Length, align 4
  %add19 = add nsw i32 %33, 1
  %34 = load ptr, ptr %status.addr, align 8
  %call20 = call i32 @utext_extract_75(ptr noundef %30, i64 noundef 0, i64 noundef %31, ptr noundef %32, i32 noundef %add19, ptr noundef %34)
  call void @llvm.memset.p0.i64(ptr align 8 %patText, i8 0, i64 144, i1 false)
  %35 = getelementptr inbounds %struct.UText, ptr %patText, i32 0, i32 0
  store i32 878368812, ptr %35, align 8
  %36 = getelementptr inbounds %struct.UText, ptr %patText, i32 0, i32 3
  store i32 144, ptr %36, align 4
  %37 = load ptr, ptr %patBuf, align 8
  %38 = load i32, ptr %pattern16Length, align 4
  %conv21 = sext i32 %38 to i64
  %39 = load ptr, ptr %status.addr, align 8
  %call22 = call ptr @utext_openUChars_75(ptr noundef %patText, ptr noundef %37, i64 noundef %conv21, ptr noundef %39)
  %40 = load ptr, ptr %pe.addr, align 8
  %cmp23 = icmp ne ptr %40, null
  br i1 %cmp23, label %if.then24, label %if.else

if.then24:                                        ; preds = %if.end16
  %41 = load i32, ptr %flags.addr, align 4
  %42 = load ptr, ptr %pe.addr, align 8
  %43 = load ptr, ptr %status.addr, align 8
  %call25 = call noundef ptr @_ZN6icu_7512RegexPattern7compileEP5UTextjR11UParseErrorR10UErrorCode(ptr noundef %patText, i32 noundef %41, ptr noundef nonnull align 4 dereferenceable(72) %42, ptr noundef nonnull align 4 dereferenceable(4) %43)
  %44 = load ptr, ptr %re, align 8
  %fPat = getelementptr inbounds %"struct.icu_75::RegularExpression", ptr %44, i32 0, i32 2
  store ptr %call25, ptr %fPat, align 8
  br label %if.end28

if.else:                                          ; preds = %if.end16
  %45 = load i32, ptr %flags.addr, align 4
  %46 = load ptr, ptr %status.addr, align 8
  %call26 = call noundef ptr @_ZN6icu_7512RegexPattern7compileEP5UTextjR10UErrorCode(ptr noundef %patText, i32 noundef %45, ptr noundef nonnull align 4 dereferenceable(4) %46)
  %47 = load ptr, ptr %re, align 8
  %fPat27 = getelementptr inbounds %"struct.icu_75::RegularExpression", ptr %47, i32 0, i32 2
  store ptr %call26, ptr %fPat27, align 8
  br label %if.end28

if.end28:                                         ; preds = %if.else, %if.then24
  %call29 = call ptr @utext_close_75(ptr noundef %patText)
  %48 = load ptr, ptr %status.addr, align 8
  %49 = load i32, ptr %48, align 4
  %call30 = call noundef signext i8 @_ZL9U_FAILURE10UErrorCode(i32 noundef %49)
  %tobool31 = icmp ne i8 %call30, 0
  br i1 %tobool31, label %if.then32, label %if.end33

if.then32:                                        ; preds = %if.end28
  br label %ErrorExit

if.end33:                                         ; preds = %if.end28
  %50 = load ptr, ptr %re, align 8
  %fPat34 = getelementptr inbounds %"struct.icu_75::RegularExpression", ptr %50, i32 0, i32 2
  %51 = load ptr, ptr %fPat34, align 8
  %52 = load ptr, ptr %status.addr, align 8
  %call35 = call noundef ptr @_ZNK6icu_7512RegexPattern7matcherER10UErrorCode(ptr noundef nonnull align 8 dereferenceable(200) %51, ptr noundef nonnull align 4 dereferenceable(4) %52)
  %53 = load ptr, ptr %re, align 8
  %fMatcher = getelementptr inbounds %"struct.icu_75::RegularExpression", ptr %53, i32 0, i32 7
  store ptr %call35, ptr %fMatcher, align 8
  %54 = load ptr, ptr %status.addr, align 8
  %55 = load i32, ptr %54, align 4
  %call36 = call noundef signext i8 @_ZL9U_SUCCESS10UErrorCode(i32 noundef %55)
  %tobool37 = icmp ne i8 %call36, 0
  br i1 %tobool37, label %if.then38, label %if.end39

if.then38:                                        ; preds = %if.end33
  %56 = load ptr, ptr %re, align 8
  store ptr %56, ptr %retval, align 8
  br label %return

if.end39:                                         ; preds = %if.end33
  br label %ErrorExit

ErrorExit:                                        ; preds = %if.end39, %if.then32
  %57 = load ptr, ptr %re, align 8
  %isnull40 = icmp eq ptr %57, null
  br i1 %isnull40, label %delete.end42, label %delete.notnull41

delete.notnull41:                                 ; preds = %ErrorExit
  call void @_ZN6icu_7517RegularExpressionD1Ev(ptr noundef nonnull align 8 dereferenceable(61) %57) #7
  call void @_ZN6icu_757UMemorydlEPv(ptr noundef %57) #7
  br label %delete.end42

delete.end42:                                     ; preds = %delete.notnull41, %ErrorExit
  store ptr null, ptr %retval, align 8
  br label %return

return:                                           ; preds = %delete.end42, %if.then38, %delete.end, %if.then5, %if.then1, %if.then
  %58 = load ptr, ptr %retval, align 8
  ret ptr %58

eh.resume:                                        ; preds = %cleanup.done
  %exn = load ptr, ptr %exn.slot, align 8
  %sel = load i32, ptr %ehselector.slot, align 4
  %lpad.val = insertvalue { ptr, i32 } poison, ptr %exn, 0
  %lpad.val43 = insertvalue { ptr, i32 } %lpad.val, i32 %sel, 1
  resume { ptr, i32 } %lpad.val43
}