; Function Attrs: mustprogress uwtable
define noundef ptr @uregex_openUText_75(ptr noundef %pattern, i32 noundef %flags, ptr noundef %pe, ptr noundef %status) local_unnamed_addr #5 personality ptr @__gxx_personality_v0 {
entry:
  %lengthStatus = alloca i32, align 4
  %patText = alloca %struct.UText, align 8
  %0 = load i32, ptr %status, align 4
  %cmp.i = icmp slt i32 %0, 1
  br i1 %cmp.i, label %if.end, label %return

if.end:                                           ; preds = %entry
  %cmp = icmp eq ptr %pattern, null
  br i1 %cmp, label %if.then1, label %if.end2

if.then1:                                         ; preds = %if.end
  store i32 1, ptr %status, align 4
  br label %return

if.end2:                                          ; preds = %if.end
  %call3 = tail call i64 @utext_nativeLength_75(ptr noundef nonnull %pattern)
  %cmp4 = icmp eq i64 %call3, 0
  br i1 %cmp4, label %if.then5, label %if.end6

if.then5:                                         ; preds = %if.end2
  store i32 1, ptr %status, align 4
  br label %return

if.end6:                                          ; preds = %if.end2
  %call7 = tail call noundef ptr @_ZN6icu_757UMemorynwEm(i64 noundef 64) #10
  %new.isnull = icmp eq ptr %call7, null
  br i1 %new.isnull, label %new.cont, label %new.notnull

new.notnull:                                      ; preds = %if.end6
  invoke void @_ZN6icu_7517RegularExpressionC1Ev(ptr noundef nonnull align 8 dereferenceable(61) %call7)
          to label %new.cont unwind label %lpad

new.cont:                                         ; preds = %new.notnull, %if.end6
  store i32 0, ptr %lengthStatus, align 4
  %call8 = call i32 @utext_extract_75(ptr noundef nonnull %pattern, i64 noundef 0, i64 noundef %call3, ptr noundef null, i32 noundef 0, ptr noundef nonnull %lengthStatus)
  %call9 = call noalias dereferenceable_or_null(4) ptr @uprv_malloc_75(i64 noundef 4) #12
  %add = add nsw i32 %call8, 1
  %conv = sext i32 %add to i64
  %mul = shl nsw i64 %conv, 1
  %call10 = call noalias ptr @uprv_malloc_75(i64 noundef %mul) #12
  %cmp12 = icmp eq ptr %call9, null
  %or.cond = or i1 %new.isnull, %cmp12
  %cmp14 = icmp eq ptr %call10, null
  %or.cond1 = select i1 %or.cond, i1 true, i1 %cmp14
  br i1 %or.cond1, label %if.then15, label %if.end16

if.then15:                                        ; preds = %new.cont
  store i32 7, ptr %status, align 4
  br i1 %new.isnull, label %delete.end, label %delete.notnull

delete.notnull:                                   ; preds = %if.then15
  call void @_ZN6icu_7517RegularExpressionD1Ev(ptr noundef nonnull align 8 dereferenceable(61) %call7) #10
  call void @_ZN6icu_757UMemorydlEPv(ptr noundef nonnull %call7) #10
  br label %delete.end

delete.end:                                       ; preds = %delete.notnull, %if.then15
  call void @uprv_free_75(ptr noundef %call9)
  call void @uprv_free_75(ptr noundef %call10)
  br label %return

lpad:                                             ; preds = %new.notnull
  %1 = landingpad { ptr, i32 }
          cleanup
  tail call void @_ZN6icu_757UMemorydlEPv(ptr noundef nonnull %call7) #10
  resume { ptr, i32 } %1

if.end16:                                         ; preds = %new.cont
  %fPatRefCount = getelementptr inbounds i8, ptr %call7, i64 16
  store ptr %call9, ptr %fPatRefCount, align 8
  store atomic i32 1, ptr %call9 seq_cst, align 4
  %fPatString = getelementptr inbounds i8, ptr %call7, i64 24
  store ptr %call10, ptr %fPatString, align 8
  %fPatStringLen = getelementptr inbounds i8, ptr %call7, i64 32
  store i32 %call8, ptr %fPatStringLen, align 8
  %call20 = call i32 @utext_extract_75(ptr noundef nonnull %pattern, i64 noundef 0, i64 noundef %call3, ptr noundef nonnull %call10, i32 noundef %add, ptr noundef nonnull %status)
  call void @llvm.memset.p0.i64(ptr noundef nonnull align 8 dereferenceable(144) %patText, i8 0, i64 144, i1 false)
  store i32 878368812, ptr %patText, align 8
  %2 = getelementptr inbounds i8, ptr %patText, i64 12
  store i32 144, ptr %2, align 4
  %conv21 = sext i32 %call8 to i64
  %call22 = call ptr @utext_openUChars_75(ptr noundef nonnull %patText, ptr noundef nonnull %call10, i64 noundef %conv21, ptr noundef nonnull %status)
  %cmp23.not = icmp eq ptr %pe, null
  br i1 %cmp23.not, label %if.else, label %if.then24

if.then24:                                        ; preds = %if.end16
  %call25 = call noundef ptr @_ZN6icu_7512RegexPattern7compileEP5UTextjR11UParseErrorR10UErrorCode(ptr noundef nonnull %patText, i32 noundef %flags, ptr noundef nonnull align 4 dereferenceable(72) %pe, ptr noundef nonnull align 4 dereferenceable(4) %status)
  br label %if.end28

if.else:                                          ; preds = %if.end16
  %call26 = call noundef ptr @_ZN6icu_7512RegexPattern7compileEP5UTextjR10UErrorCode(ptr noundef nonnull %patText, i32 noundef %flags, ptr noundef nonnull align 4 dereferenceable(4) %status)
  br label %if.end28

if.end28:                                         ; preds = %if.else, %if.then24
  %call25.sink = phi ptr [ %call26, %if.else ], [ %call25, %if.then24 ]
  %3 = getelementptr inbounds i8, ptr %call7, i64 8
  store ptr %call25.sink, ptr %3, align 8
  %call29 = call ptr @utext_close_75(ptr noundef nonnull %patText)
  %4 = load i32, ptr %status, align 4
  %cmp.i39 = icmp slt i32 %4, 1
  br i1 %cmp.i39, label %if.end33, label %delete.notnull41

if.end33:                                         ; preds = %if.end28
  %5 = load ptr, ptr %3, align 8
  %call35 = call noundef ptr @_ZNK6icu_7512RegexPattern7matcherER10UErrorCode(ptr noundef nonnull align 8 dereferenceable(200) %5, ptr noundef nonnull align 4 dereferenceable(4) %status)
  %fMatcher = getelementptr inbounds i8, ptr %call7, i64 40
  store ptr %call35, ptr %fMatcher, align 8
  %6 = load i32, ptr %status, align 4
  %cmp.i41 = icmp sgt i32 %6, 0
  br i1 %cmp.i41, label %delete.notnull41, label %return

delete.notnull41:                                 ; preds = %if.end28, %if.end33
  call void @_ZN6icu_7517RegularExpressionD1Ev(ptr noundef nonnull align 8 dereferenceable(61) %call7) #10
  call void @_ZN6icu_757UMemorydlEPv(ptr noundef nonnull %call7) #10
  br label %return

return:                                           ; preds = %if.end33, %entry, %delete.notnull41, %delete.end, %if.then5, %if.then1
  %retval.0 = phi ptr [ null, %if.then1 ], [ null, %if.then5 ], [ null, %delete.end ], [ null, %delete.notnull41 ], [ null, %entry ], [ %call7, %if.end33 ]
  ret ptr %retval.0
}